; Function Attrs: mustprogress uwtable
define void @_ZN5faiss15IndexBinaryHNSWC2Eii(ptr noundef nonnull align 8 dereferenceable(5200) %0, i32 noundef %1, i32 noundef %2) unnamed_addr #1 align 2 personality ptr @__gxx_personality_v0 {
  %4 = sext i32 %1 to i64
  tail call void @_ZN5faiss11IndexBinaryC2ElNS_10MetricTypeE(ptr noundef nonnull align 8 dereferenceable(32) %0, i64 noundef %4, i32 noundef 1)
  store ptr getelementptr inbounds ({ [16 x ptr] }, ptr @_ZTVN5faiss15IndexBinaryHNSWE, i64 0, i32 0, i64 2), ptr %0, align 8
  %5 = getelementptr inbounds i8, ptr %0, i64 32
  invoke void @_ZN5faiss4HNSWC1Ei(ptr noundef nonnull align 8 dereferenceable(5149) %5, i32 noundef %2)
          to label %6 unwind label %13

6:                                                ; preds = %3
  %7 = getelementptr inbounds i8, ptr %0, i64 5184
  store i8 1, ptr %7, align 8
  %8 = invoke noalias noundef nonnull dereferenceable(80) ptr @_Znwm(i64 noundef 80) #23
          to label %9 unwind label %15

9:                                                ; preds = %6
  invoke void @_ZN5faiss15IndexBinaryFlatC1El(ptr noundef nonnull align 8 dereferenceable(76) %8, i64 noundef %4)
          to label %10 unwind label %17

10:                                               ; preds = %9
  %11 = getelementptr inbounds i8, ptr %0, i64 5192
  store ptr %8, ptr %11, align 8
  %12 = getelementptr inbounds i8, ptr %0, i64 25
  store i8 1, ptr %12, align 1
  ret void

13:                                               ; preds = %3
  %14 = landingpad { ptr, i32 }
          cleanup
  br label %20

15:                                               ; preds = %6
  %16 = landingpad { ptr, i32 }
          cleanup
  br label %19

17:                                               ; preds = %9
  %18 = landingpad { ptr, i32 }
          cleanup
  tail call void @_ZdlPv(ptr noundef nonnull %8) #21
  br label %19

19:                                               ; preds = %17, %15
  %.pn = phi { ptr, i32 } [ %18, %17 ], [ %16, %15 ]
  tail call void @_ZN5faiss4HNSWD2Ev(ptr noundef nonnull align 8 dereferenceable(5149) %5) #9
  br label %20

20:                                               ; preds = %19, %13
  %.pn.pn = phi { ptr, i32 } [ %.pn, %19 ], [ %14, %13 ]
  tail call void @_ZN5faiss11IndexBinaryD2Ev(ptr noundef nonnull align 8 dereferenceable(32) %0) #9
  resume { ptr, i32 } %.pn.pn
}